; ModuleID = 'source-C-CXX/32/660.c'
source_filename = "source-C-CXX/32/660.c"
target datalayout = "e-m:e-p270:32:32-p271:32:32-p272:64:64-i64:64-f80:128-n8:16:32:64-S128"
target triple = "x86_64-pc-linux-gnu"

@.str = private unnamed_addr constant [3 x i8] c"%d\00", align 1
@.str.1 = private unnamed_addr constant [3 x i8] c"%s\00", align 1

; Function Attrs: nofree nounwind sspstrong uwtable
define dso_local i32 @main() local_unnamed_addr #0 {
  %1 = alloca i32, align 4
  %2 = alloca [1000 x [300 x i8]], align 16
  %3 = alloca [1000 x [300 x i8]], align 16
  %4 = bitcast i32* %1 to i8*
  call void @llvm.lifetime.start.p0i8(i64 4, i8* nonnull %4) #4
  %5 = getelementptr inbounds [1000 x [300 x i8]], [1000 x [300 x i8]]* %2, i64 0, i64 0, i64 0
  call void @llvm.lifetime.start.p0i8(i64 300000, i8* nonnull %5) #4
  %6 = getelementptr inbounds [1000 x [300 x i8]], [1000 x [300 x i8]]* %3, i64 0, i64 0, i64 0
  call void @llvm.lifetime.start.p0i8(i64 300000, i8* nonnull %6) #4
  %7 = call i32 (i8*, ...) @__isoc99_scanf(i8* getelementptr inbounds ([3 x i8], [3 x i8]* @.str, i64 0, i64 0), i32* nonnull %1)
  %8 = load i32, i32* %1, align 4, !tbaa !5
  %9 = icmp sgt i32 %8, 0
  br i1 %9, label %10, label %34

10:                                               ; preds = %0, %27
  %11 = phi i64 [ %30, %27 ], [ 0, %0 ]
  %12 = getelementptr inbounds [1000 x [300 x i8]], [1000 x [300 x i8]]* %2, i64 0, i64 %11, i64 0
  %13 = call i32 (i8*, ...) @__isoc99_scanf(i8* getelementptr inbounds ([3 x i8], [3 x i8]* @.str.1, i64 0, i64 0), i8* nonnull %12)
  br label %14

14:                                               ; preds = %24, %10
  %15 = phi i64 [ %26, %24 ], [ 0, %10 ]
  %16 = phi i8* [ %25, %24 ], [ %12, %10 ]
  %17 = load i8, i8* %16, align 1, !tbaa !9
  switch i8 %17, label %24 [
    i8 0, label %27
    i8 65, label %21
    i8 71, label %18
    i8 67, label %19
    i8 84, label %20
  ]

18:                                               ; preds = %14
  br label %21

19:                                               ; preds = %14
  br label %21

20:                                               ; preds = %14
  br label %21

21:                                               ; preds = %14, %20, %19, %18
  %22 = phi i8 [ 67, %18 ], [ 71, %19 ], [ 65, %20 ], [ 84, %14 ]
  %23 = getelementptr inbounds [1000 x [300 x i8]], [1000 x [300 x i8]]* %3, i64 0, i64 %11, i64 %15
  store i8 %22, i8* %23, align 1, !tbaa !9
  br label %24

24:                                               ; preds = %21, %14
  %25 = getelementptr inbounds i8, i8* %16, i64 1
  %26 = add nuw i64 %15, 1
  br label %14, !llvm.loop !10

27:                                               ; preds = %14
  %28 = getelementptr inbounds [1000 x [300 x i8]], [1000 x [300 x i8]]* %3, i64 0, i64 %11, i64 0
  %29 = call i32 @puts(i8* nonnull %28)
  %30 = add nuw nsw i64 %11, 1
  %31 = load i32, i32* %1, align 4, !tbaa !5
  %32 = sext i32 %31 to i64
  %33 = icmp slt i64 %30, %32
  br i1 %33, label %10, label %34, !llvm.loop !12

34:                                               ; preds = %27, %0
  call void @llvm.lifetime.end.p0i8(i64 300000, i8* nonnull %6) #4
  call void @llvm.lifetime.end.p0i8(i64 300000, i8* nonnull %5) #4
  call void @llvm.lifetime.end.p0i8(i64 4, i8* nonnull %4) #4
  ret i32 0
}

; Function Attrs: argmemonly mustprogress nofree nosync nounwind willreturn
declare void @llvm.lifetime.start.p0i8(i64 immarg, i8* nocapture) #1

; Function Attrs: nofree nounwind
declare noundef i32 @__isoc99_scanf(i8* nocapture noundef readonly, ...) local_unnamed_addr #2

; Function Attrs: argmemonly mustprogress nofree nosync nounwind willreturn
declare void @llvm.lifetime.end.p0i8(i64 immarg, i8* nocapture) #1

; Function Attrs: nofree nounwind
declare noundef i32 @puts(i8* nocapture noundef readonly) local_unnamed_addr #3


!llvm.module.flags = !{!0, !1, !2, !3}
!llvm.ident = !{!4}

!0 = !{i32 1, !"wchar_size", i32 4}
!1 = !{i32 7, !"PIC Level", i32 2}
!2 = !{i32 7, !"PIE Level", i32 2}
!3 = !{i32 7, !"uwtable", i32 1}
!4 = !{!"clang version 13.0.0"}
!5 = !{!6, !6, i64 0}
!6 = !{!"int", !7, i64 0}
!7 = !{!"omnipotent char", !8, i64 0}
!8 = !{!"Simple C/C++ TBAA"}
!9 = !{!7, !7, i64 0}
!10 = distinct !{!10, !11}
!11 = !{!"llvm.loop.mustprogress"}
!12 = distinct !{!12, !11}
